target datalayout = "e-m:e-p270:32:32-p271:32:32-p272:64:64-i64:64-i128:128-f80:128-n8:16:32:64-S128"
target triple = "x86_64-pc-linux-gnu"

%struct.parser_state_t = type { ptr, double, ptr }
%struct.token_t = type { i32, %union.token_data_t }
%union.token_data_t = type { double }

; Function Attrs: nounwind uwtable
define internal double @_parse_power_expression(ptr noundef %0) #0 {
  %2 = alloca double, align 8
  %3 = alloca ptr, align 8
  %4 = alloca double, align 8
  %5 = alloca i32, align 4
  %6 = alloca double, align 8
  store ptr %0, ptr %3, align 8, !tbaa !14
  %7 = load ptr, ptr %3, align 8, !tbaa !14
  %8 = getelementptr inbounds nuw %struct.parser_state_t, ptr %7, i32 0, i32 2
  %9 = load ptr, ptr %8, align 8, !tbaa !20
  %10 = icmp ne ptr %9, null
  br i1 %10, label %12, label %11

11:                                               ; preds = %1
  store double 0x7FF8000000000000, ptr %2, align 8
  br label %54

12:                                               ; preds = %1
  call void @llvm.lifetime.start.p0(i64 8, ptr %4) #6
  %13 = load ptr, ptr %3, align 8, !tbaa !14
  %14 = call reassoc nsz arcp contract afn double @_parse_unary_expression(ptr noundef %13)
  store double %14, ptr %4, align 8, !tbaa !6
  br label %15

15:                                               ; preds = %38, %12
  %16 = load ptr, ptr %3, align 8, !tbaa !14
  %17 = getelementptr inbounds nuw %struct.parser_state_t, ptr %16, i32 0, i32 2
  %18 = load ptr, ptr %17, align 8, !tbaa !20
  %19 = icmp ne ptr %18, null
  br i1 %19, label %20, label %27

20:                                               ; preds = %15
  %21 = load ptr, ptr %3, align 8, !tbaa !14
  %22 = getelementptr inbounds nuw %struct.parser_state_t, ptr %21, i32 0, i32 2
  %23 = load ptr, ptr %22, align 8, !tbaa !20
  %24 = getelementptr inbounds nuw %struct.token_t, ptr %23, i32 0, i32 0
  %25 = load i32, ptr %24, align 8, !tbaa !21
  %26 = icmp eq i32 %25, 1
  br label %27

27:                                               ; preds = %20, %15
  %28 = phi i1 [ false, %15 ], [ %26, %20 ]
  br i1 %28, label %29, label %51

29:                                               ; preds = %27
  %30 = load ptr, ptr %3, align 8, !tbaa !14
  %31 = getelementptr inbounds nuw %struct.parser_state_t, ptr %30, i32 0, i32 2
  %32 = load ptr, ptr %31, align 8, !tbaa !20
  %33 = getelementptr inbounds nuw %struct.token_t, ptr %32, i32 0, i32 1
  %34 = load i32, ptr %33, align 8, !tbaa !13
  %35 = icmp ne i32 %34, 7
  br i1 %35, label %36, label %38

36:                                               ; preds = %29
  %37 = load double, ptr %4, align 8, !tbaa !6
  store double %37, ptr %2, align 8
  store i32 1, ptr %5, align 4
  br label %53

38:                                               ; preds = %29
  %39 = load ptr, ptr %3, align 8, !tbaa !14
  %40 = getelementptr inbounds nuw %struct.parser_state_t, ptr %39, i32 0, i32 2
  %41 = load ptr, ptr %40, align 8, !tbaa !20
  call void @free(ptr noundef %41) #6
  %42 = load ptr, ptr %3, align 8, !tbaa !14
  %43 = call ptr @_get_token(ptr noundef %42)
  %44 = load ptr, ptr %3, align 8, !tbaa !14
  %45 = getelementptr inbounds nuw %struct.parser_state_t, ptr %44, i32 0, i32 2
  store ptr %43, ptr %45, align 8, !tbaa !20
  call void @llvm.lifetime.start.p0(i64 8, ptr %6) #6
  %46 = load ptr, ptr %3, align 8, !tbaa !14
  %47 = call reassoc nsz arcp contract afn double @_parse_unary_expression(ptr noundef %46)
  store double %47, ptr %6, align 8, !tbaa !6
  %48 = load double, ptr %4, align 8, !tbaa !6
  %49 = load double, ptr %6, align 8, !tbaa !6
  %50 = call reassoc nsz arcp contract afn double @llvm.pow.f64(double %48, double %49)
  store double %50, ptr %4, align 8, !tbaa !6
  call void @llvm.lifetime.end.p0(i64 8, ptr %6) #6
  br label %15

51:                                               ; preds = %27
  %52 = load double, ptr %4, align 8, !tbaa !6
  store double %52, ptr %2, align 8
  store i32 1, ptr %5, align 4
  br label %53

53:                                               ; preds = %51, %36
  call void @llvm.lifetime.end.p0(i64 8, ptr %4) #6
  br label %54

54:                                               ; preds = %53, %11
  %55 = load double, ptr %2, align 8
  ret double %55
}

; Function Attrs: nounwind uwtable
define internal double @_parse_multiplicative_expression(ptr noundef %0) #0 {
  %2 = alloca double, align 8
  %3 = alloca ptr, align 8
  %4 = alloca double, align 8
  %5 = alloca i32, align 4
  %6 = alloca i32, align 4
  %7 = alloca double, align 8
  store ptr %0, ptr %3, align 8, !tbaa !14
  %8 = load ptr, ptr %3, align 8, !tbaa !14
  %9 = getelementptr inbounds nuw %struct.parser_state_t, ptr %8, i32 0, i32 2
  %10 = load ptr, ptr %9, align 8, !tbaa !20
  %11 = icmp ne ptr %10, null
  br i1 %11, label %13, label %12

12:                                               ; preds = %1
  store double 0x7FF8000000000000, ptr %2, align 8
  br label %112

13:                                               ; preds = %1
  call void @llvm.lifetime.start.p0(i64 8, ptr %4) #6
  %14 = load ptr, ptr %3, align 8, !tbaa !14
  %15 = call reassoc nsz arcp contract afn double @_parse_power_expression(ptr noundef %14)
  store double %15, ptr %4, align 8, !tbaa !6
  br label %16

16:                                               ; preds = %108, %13
  %17 = load ptr, ptr %3, align 8, !tbaa !14
  %18 = getelementptr inbounds nuw %struct.parser_state_t, ptr %17, i32 0, i32 2
  %19 = load ptr, ptr %18, align 8, !tbaa !20
  %20 = icmp ne ptr %19, null
  br i1 %20, label %21, label %28

21:                                               ; preds = %16
  %22 = load ptr, ptr %3, align 8, !tbaa !14
  %23 = getelementptr inbounds nuw %struct.parser_state_t, ptr %22, i32 0, i32 2
  %24 = load ptr, ptr %23, align 8, !tbaa !20
  %25 = getelementptr inbounds nuw %struct.token_t, ptr %24, i32 0, i32 0
  %26 = load i32, ptr %25, align 8, !tbaa !21
  %27 = icmp eq i32 %26, 1
  br label %28

28:                                               ; preds = %21, %16
  %29 = phi i1 [ false, %16 ], [ %27, %21 ]
  br i1 %29, label %30, label %109

30:                                               ; preds = %28
  call void @llvm.lifetime.start.p0(i64 4, ptr %5) #6
  %31 = load ptr, ptr %3, align 8, !tbaa !14
  %32 = getelementptr inbounds nuw %struct.parser_state_t, ptr %31, i32 0, i32 2
  %33 = load ptr, ptr %32, align 8, !tbaa !20
  %34 = getelementptr inbounds nuw %struct.token_t, ptr %33, i32 0, i32 1
  %35 = load i32, ptr %34, align 8, !tbaa !13
  store i32 %35, ptr %5, align 4, !tbaa !25
  %36 = load i32, ptr %5, align 4, !tbaa !25
  %37 = icmp ne i32 %36, 4
  br i1 %37, label %38, label %49

38:                                               ; preds = %30
  %39 = load i32, ptr %5, align 4, !tbaa !25
  %40 = icmp ne i32 %39, 5
  br i1 %40, label %41, label %49

41:                                               ; preds = %38
  %42 = load i32, ptr %5, align 4, !tbaa !25
  %43 = icmp ne i32 %42, 6
  br i1 %43, label %44, label %49

44:                                               ; preds = %41
  %45 = load i32, ptr %5, align 4, !tbaa !25
  %46 = icmp ne i32 %45, 8
  br i1 %46, label %47, label %49

47:                                               ; preds = %44
  %48 = load double, ptr %4, align 8, !tbaa !6
  store double %48, ptr %2, align 8
  store i32 1, ptr %6, align 4
  br label %106

49:                                               ; preds = %44, %41, %38, %30
  %50 = load ptr, ptr %3, align 8, !tbaa !14
  %51 = getelementptr inbounds nuw %struct.parser_state_t, ptr %50, i32 0, i32 2
  %52 = load ptr, ptr %51, align 8, !tbaa !20
  call void @free(ptr noundef %52) #6
  %53 = load ptr, ptr %3, align 8, !tbaa !14
  %54 = call ptr @_get_token(ptr noundef %53)
  %55 = load ptr, ptr %3, align 8, !tbaa !14
  %56 = getelementptr inbounds nuw %struct.parser_state_t, ptr %55, i32 0, i32 2
  store ptr %54, ptr %56, align 8, !tbaa !20
  call void @llvm.lifetime.start.p0(i64 8, ptr %7) #6
  %57 = load ptr, ptr %3, align 8, !tbaa !14
  %58 = call reassoc nsz arcp contract afn double @_parse_power_expression(ptr noundef %57)
  store double %58, ptr %7, align 8, !tbaa !6
  %59 = load i32, ptr %5, align 4, !tbaa !25
  %60 = icmp eq i32 %59, 4
  br i1 %60, label %61, label %65

61:                                               ; preds = %49
  %62 = load double, ptr %7, align 8, !tbaa !6
  %63 = load double, ptr %4, align 8, !tbaa !6
  %64 = fmul reassoc nsz arcp contract afn double %63, %62
  store double %64, ptr %4, align 8, !tbaa !6
  br label %105

65:                                               ; preds = %49
  %66 = load i32, ptr %5, align 4, !tbaa !25
  %67 = icmp eq i32 %66, 5
  br i1 %67, label %68, label %72

68:                                               ; preds = %65
  %69 = load double, ptr %7, align 8, !tbaa !6
  %70 = load double, ptr %4, align 8, !tbaa !6
  %71 = fdiv reassoc nsz arcp contract afn double %70, %69
  store double %71, ptr %4, align 8, !tbaa !6
  br label %104

72:                                               ; preds = %65
  %73 = load i32, ptr %5, align 4, !tbaa !25
  %74 = icmp eq i32 %73, 6
  br i1 %74, label %75, label %79

75:                                               ; preds = %72
  %76 = load double, ptr %4, align 8, !tbaa !6
  %77 = load double, ptr %7, align 8, !tbaa !6
  %78 = frem reassoc nsz arcp contract afn double %76, %77
  store double %78, ptr %4, align 8, !tbaa !6
  br label %103

79:                                               ; preds = %72
  %80 = load i32, ptr %5, align 4, !tbaa !25
  %81 = icmp eq i32 %80, 8
  br i1 %81, label %82, label %102

82:                                               ; preds = %79
  %83 = load double, ptr %4, align 8, !tbaa !6
  %84 = load double, ptr %7, align 8, !tbaa !6
  %85 = fcmp reassoc nsz arcp contract afn ogt double %83, %84
  br i1 %85, label %86, label %88

86:                                               ; preds = %82
  %87 = load double, ptr %4, align 8, !tbaa !6
  br label %90

88:                                               ; preds = %82
  %89 = load double, ptr %7, align 8, !tbaa !6
  br label %90

90:                                               ; preds = %88, %86
  %91 = phi reassoc nsz arcp contract afn double [ %87, %86 ], [ %89, %88 ]
  %92 = load double, ptr %4, align 8, !tbaa !6
  %93 = load double, ptr %7, align 8, !tbaa !6
  %94 = fcmp reassoc nsz arcp contract afn olt double %92, %93
  br i1 %94, label %95, label %97

95:                                               ; preds = %90
  %96 = load double, ptr %4, align 8, !tbaa !6
  br label %99

97:                                               ; preds = %90
  %98 = load double, ptr %7, align 8, !tbaa !6
  br label %99

99:                                               ; preds = %97, %95
  %100 = phi reassoc nsz arcp contract afn double [ %96, %95 ], [ %98, %97 ]
  %101 = fdiv reassoc nsz arcp contract afn double %91, %100
  store double %101, ptr %4, align 8, !tbaa !6
  br label %102

102:                                              ; preds = %99, %79
  br label %103

103:                                              ; preds = %102, %75
  br label %104

104:                                              ; preds = %103, %68
  br label %105

105:                                              ; preds = %104, %61
  call void @llvm.lifetime.end.p0(i64 8, ptr %7) #6
  store i32 0, ptr %6, align 4
  br label %106

106:                                              ; preds = %105, %47
  call void @llvm.lifetime.end.p0(i64 4, ptr %5) #6
  %107 = load i32, ptr %6, align 4
  switch i32 %107, label %111 [
    i32 0, label %108
  ]

108:                                              ; preds = %106
  br label %16

109:                                              ; preds = %28
  %110 = load double, ptr %4, align 8, !tbaa !6
  store double %110, ptr %2, align 8
  store i32 1, ptr %6, align 4
  br label %111

111:                                              ; preds = %109, %106
  call void @llvm.lifetime.end.p0(i64 8, ptr %4) #6
  br label %112

112:                                              ; preds = %111, %12
  %113 = load double, ptr %2, align 8
  ret double %113
}