; Function Attrs: nounwind uwtable
define internal fastcc double @_parse_multiplicative_expression(ptr noundef %0) unnamed_addr #0 {
  %2 = getelementptr inbounds nuw i8, ptr %0, i64 16
  %3 = load ptr, ptr %2, align 8, !tbaa !16
  %.not = icmp eq ptr %3, null
  br i1 %.not, label %.critedge, label %4

4:                                                ; preds = %1
  %5 = tail call reassoc nsz arcp contract afn fastcc double @_parse_unary_expression(ptr noundef nonnull %0)
  %6 = load ptr, ptr %2, align 8, !tbaa !16
  %.not16.i53 = icmp eq ptr %6, null
  br i1 %.not16.i53, label %.critedge, label %.lr.ph

.lr.ph:                                           ; preds = %4, %13
  %7 = phi ptr [ %17, %13 ], [ %6, %4 ]
  %.014.i54 = phi double [ %16, %13 ], [ %5, %4 ]
  %8 = load i32, ptr %7, align 8, !tbaa !17
  %9 = icmp eq i32 %8, 1
  br i1 %9, label %10, label %.lr.ph70.preheader

10:                                               ; preds = %.lr.ph
  %11 = getelementptr inbounds nuw i8, ptr %7, i64 8
  %12 = load i32, ptr %11, align 8, !tbaa !6
  %.not17.i = icmp eq i32 %12, 7
  br i1 %.not17.i, label %13, label %.lr.ph70.preheader

.lr.ph70.preheader:                               ; preds = %.lr.ph, %10
  br label %.lr.ph70

13:                                               ; preds = %10
  tail call void @free(ptr noundef nonnull %7) #5
  %14 = tail call fastcc ptr @_get_token(ptr noundef nonnull %0)
  store ptr %14, ptr %2, align 8, !tbaa !16
  %15 = tail call reassoc nsz arcp contract afn fastcc double @_parse_unary_expression(ptr noundef nonnull %0)
  %16 = tail call reassoc nsz arcp contract afn double @llvm.pow.f64(double %.014.i54, double %15)
  %17 = load ptr, ptr %2, align 8, !tbaa !16
  %.not16.i = icmp eq ptr %17, null
  br i1 %.not16.i, label %.critedge, label %.lr.ph

.lr.ph70:                                         ; preds = %.lr.ph70.preheader, %.backedge
  %18 = phi ptr [ %55, %.backedge ], [ %7, %.lr.ph70.preheader ]
  %.169 = phi double [ %.281, %.backedge ], [ undef, %.lr.ph70.preheader ]
  %.04068 = phi double [ %.14180, %.backedge ], [ %.014.i54, %.lr.ph70.preheader ]
  %19 = load i32, ptr %18, align 8, !tbaa !17
  %20 = icmp eq i32 %19, 1
  br i1 %20, label %21, label %.critedge

21:                                               ; preds = %.lr.ph70
  %22 = getelementptr inbounds nuw i8, ptr %18, i64 8
  %23 = load i32, ptr %22, align 8, !tbaa !6
  switch i32 %23, label %53 [
    i32 8, label %24
    i32 6, label %24
    i32 5, label %24
    i32 4, label %24
  ]

24:                                               ; preds = %21, %21, %21, %21
  tail call void @free(ptr noundef nonnull %18) #5
  %25 = tail call fastcc ptr @_get_token(ptr noundef nonnull %0)
  store ptr %25, ptr %2, align 8, !tbaa !16
  %.not.i47 = icmp eq ptr %25, null
  br i1 %.not.i47, label %_parse_power_expression.exit52, label %26

26:                                               ; preds = %24
  %27 = tail call reassoc nsz arcp contract afn fastcc double @_parse_unary_expression(ptr noundef nonnull %0)
  %28 = load ptr, ptr %2, align 8, !tbaa !16
  %.not16.i4959 = icmp eq ptr %28, null
  br i1 %.not16.i4959, label %_parse_power_expression.exit52, label %.lr.ph61

.lr.ph61:                                         ; preds = %26, %35
  %29 = phi ptr [ %39, %35 ], [ %28, %26 ]
  %.014.i4860 = phi double [ %38, %35 ], [ %27, %26 ]
  %30 = load i32, ptr %29, align 8, !tbaa !17
  %31 = icmp eq i32 %30, 1
  br i1 %31, label %32, label %_parse_power_expression.exit52

32:                                               ; preds = %.lr.ph61
  %33 = getelementptr inbounds nuw i8, ptr %29, i64 8
  %34 = load i32, ptr %33, align 8, !tbaa !6
  %.not17.i51 = icmp eq i32 %34, 7
  br i1 %.not17.i51, label %35, label %_parse_power_expression.exit52

35:                                               ; preds = %32
  tail call void @free(ptr noundef nonnull %29) #5
  %36 = tail call fastcc ptr @_get_token(ptr noundef nonnull %0)
  store ptr %36, ptr %2, align 8, !tbaa !16
  %37 = tail call reassoc nsz arcp contract afn fastcc double @_parse_unary_expression(ptr noundef nonnull %0)
  %38 = tail call reassoc nsz arcp contract afn double @llvm.pow.f64(double %.014.i4860, double %37)
  %39 = load ptr, ptr %2, align 8, !tbaa !16
  %.not16.i49 = icmp eq ptr %39, null
  br i1 %.not16.i49, label %_parse_power_expression.exit52, label %.lr.ph61

_parse_power_expression.exit52:                   ; preds = %32, %.lr.ph61, %35, %26, %24
  %40 = phi ptr [ null, %24 ], [ null, %26 ], [ %29, %32 ], [ %29, %.lr.ph61 ], [ null, %35 ]
  %.0.i50 = phi nsz double [ 0x7FF8000000000000, %24 ], [ %27, %26 ], [ %.014.i4860, %32 ], [ %.014.i4860, %.lr.ph61 ], [ %38, %35 ]
  switch i32 %23, label %53 [
    i32 4, label %41
    i32 5, label %43
    i32 6, label %45
    i32 8, label %47
  ]

41:                                               ; preds = %_parse_power_expression.exit52
  %42 = fmul reassoc nsz arcp contract afn double %.0.i50, %.04068
  br label %.backedge

43:                                               ; preds = %_parse_power_expression.exit52
  %44 = fdiv reassoc nsz arcp contract afn double %.04068, %.0.i50
  br label %.backedge

45:                                               ; preds = %_parse_power_expression.exit52
  %46 = frem reassoc nsz arcp contract afn double %.04068, %.0.i50
  br label %.backedge

47:                                               ; preds = %_parse_power_expression.exit52
  %48 = fcmp reassoc nsz arcp contract afn ogt double %.04068, %.0.i50
  %49 = select reassoc nsz arcp contract afn i1 %48, double %.04068, double %.0.i50
  %50 = fcmp reassoc nsz arcp contract afn olt double %.04068, %.0.i50
  %51 = select reassoc nsz arcp contract afn i1 %50, double %.04068, double %.0.i50
  %52 = fdiv reassoc nsz arcp contract afn double %49, %51
  br label %.backedge

53:                                               ; preds = %_parse_power_expression.exit52, %21
  %54 = phi ptr [ %18, %21 ], [ %40, %_parse_power_expression.exit52 ]
  %.2 = phi nsz double [ %.04068, %21 ], [ %.169, %_parse_power_expression.exit52 ]
  %cond = icmp eq i32 %23, 8
  br i1 %cond, label %.backedge, label %.critedge

.backedge:                                        ; preds = %53, %43, %47, %45, %41
  %.281 = phi double [ %.2, %53 ], [ %.169, %41 ], [ %.169, %45 ], [ %.169, %47 ], [ %.169, %43 ]
  %.14180 = phi double [ %.04068, %53 ], [ %42, %41 ], [ %46, %45 ], [ %52, %47 ], [ %44, %43 ]
  %55 = phi ptr [ %54, %53 ], [ %40, %41 ], [ %40, %45 ], [ %40, %47 ], [ %40, %43 ]
  %.not45 = icmp eq ptr %55, null
  br i1 %.not45, label %.critedge, label %.lr.ph70

.critedge:                                        ; preds = %13, %53, %.lr.ph70, %.backedge, %4, %1
  %.0 = phi nsz double [ 0x7FF8000000000000, %1 ], [ %5, %4 ], [ %.04068, %.lr.ph70 ], [ %.14180, %.backedge ], [ %.2, %53 ], [ %16, %13 ]
  ret double %.0
}